; Function Attrs: mustprogress nofree norecurse nosync nounwind memory(argmem: readwrite) uwtable
define hidden void @_ZN2cv14accProd_16u32fEPKtS1_PfPKhii(ptr noundef readonly captures(none) %0, ptr noundef readonly captures(none) %1, ptr noundef captures(none) %2, ptr noundef readonly %3, i32 noundef %4, i32 noundef %5) local_unnamed_addr #0 {
  %.not.i.i = icmp eq ptr %3, null
  br i1 %.not.i.i, label %7, label %19

7:                                                ; preds = %6
  %8 = mul nsw i32 %5, %4
  %9 = icmp sgt i32 %8, 0
  br i1 %9, label %.lr.ph.preheader.i.i, label %_ZN2cv12cpu_baseline13accProd_simd_EPKtS2_PfPKhii.exit

.lr.ph.preheader.i.i:                             ; preds = %7
  %wide.trip.count67.i.i = zext nneg i32 %8 to i64
  br label %.lr.ph.i.i

.lr.ph.i.i:                                       ; preds = %.lr.ph.i.i, %.lr.ph.preheader.i.i
  %indvars.iv64.i.i = phi i64 [ 0, %.lr.ph.preheader.i.i ], [ %indvars.iv.next65.i.i, %.lr.ph.i.i ]
  %10 = getelementptr inbounds nuw i16, ptr %0, i64 %indvars.iv64.i.i
  %11 = load i16, ptr %10, align 2, !tbaa !12
  %12 = uitofp i16 %11 to float
  %13 = getelementptr inbounds nuw i16, ptr %1, i64 %indvars.iv64.i.i
  %14 = load i16, ptr %13, align 2, !tbaa !12
  %15 = uitofp i16 %14 to float
  %16 = getelementptr inbounds nuw float, ptr %2, i64 %indvars.iv64.i.i
  %17 = load float, ptr %16, align 4, !tbaa !6
  %18 = tail call float @llvm.fmuladd.f32(float %12, float %15, float %17)
  store float %18, ptr %16, align 4, !tbaa !6
  %indvars.iv.next65.i.i = add nuw nsw i64 %indvars.iv64.i.i, 1
  %exitcond68.not.i.i = icmp eq i64 %indvars.iv.next65.i.i, %wide.trip.count67.i.i
  br i1 %exitcond68.not.i.i, label %_ZN2cv12cpu_baseline13accProd_simd_EPKtS2_PfPKhii.exit, label %.lr.ph.i.i, !llvm.loop !58

19:                                               ; preds = %6
  %20 = icmp sgt i32 %4, 0
  br i1 %20, label %.lr.ph54.i.i, label %_ZN2cv12cpu_baseline13accProd_simd_EPKtS2_PfPKhii.exit

.lr.ph54.i.i:                                     ; preds = %19
  %21 = icmp sgt i32 %5, 0
  %22 = sext i32 %5 to i64
  br i1 %21, label %.lr.ph54.split.us.preheader.i.i, label %_ZN2cv12cpu_baseline13accProd_simd_EPKtS2_PfPKhii.exit

.lr.ph54.split.us.preheader.i.i:                  ; preds = %.lr.ph54.i.i
  %wide.trip.count62.i.i = zext nneg i32 %4 to i64
  %wide.trip.count.i.i = zext nneg i32 %5 to i64
  br label %.lr.ph54.split.us.i.i

.lr.ph54.split.us.i.i:                            ; preds = %..loopexit47_crit_edge.us.i.i, %.lr.ph54.split.us.preheader.i.i
  %indvars.iv59.i.i = phi i64 [ 0, %.lr.ph54.split.us.preheader.i.i ], [ %indvars.iv.next60.i.i, %..loopexit47_crit_edge.us.i.i ]
  %.04252.us.i.i = phi ptr [ %0, %.lr.ph54.split.us.preheader.i.i ], [ %34, %..loopexit47_crit_edge.us.i.i ]
  %.04351.us.i.i = phi ptr [ %1, %.lr.ph54.split.us.preheader.i.i ], [ %35, %..loopexit47_crit_edge.us.i.i ]
  %.04450.us.i.i = phi ptr [ %2, %.lr.ph54.split.us.preheader.i.i ], [ %36, %..loopexit47_crit_edge.us.i.i ]
  %23 = getelementptr inbounds nuw i8, ptr %3, i64 %indvars.iv59.i.i
  %24 = load i8, ptr %23, align 1, !tbaa !3
  %.not46.us.i.i = icmp eq i8 %24, 0
  br i1 %.not46.us.i.i, label %..loopexit47_crit_edge.us.i.i, label %.preheader.us.i.i

.preheader.us.i.i:                                ; preds = %.lr.ph54.split.us.i.i, %.preheader.us.i.i
  %indvars.iv.i.i = phi i64 [ %indvars.iv.next.i.i, %.preheader.us.i.i ], [ 0, %.lr.ph54.split.us.i.i ]
  %25 = getelementptr inbounds nuw i16, ptr %.04252.us.i.i, i64 %indvars.iv.i.i
  %26 = load i16, ptr %25, align 2, !tbaa !12
  %27 = uitofp i16 %26 to float
  %28 = getelementptr inbounds nuw i16, ptr %.04351.us.i.i, i64 %indvars.iv.i.i
  %29 = load i16, ptr %28, align 2, !tbaa !12
  %30 = uitofp i16 %29 to float
  %31 = getelementptr inbounds nuw float, ptr %.04450.us.i.i, i64 %indvars.iv.i.i
  %32 = load float, ptr %31, align 4, !tbaa !6
  %33 = tail call float @llvm.fmuladd.f32(float %27, float %30, float %32)
  store float %33, ptr %31, align 4, !tbaa !6
  %indvars.iv.next.i.i = add nuw nsw i64 %indvars.iv.i.i, 1
  %exitcond.not.i.i = icmp eq i64 %indvars.iv.next.i.i, %wide.trip.count.i.i
  br i1 %exitcond.not.i.i, label %..loopexit47_crit_edge.us.i.i, label %.preheader.us.i.i, !llvm.loop !59

..loopexit47_crit_edge.us.i.i:                    ; preds = %.preheader.us.i.i, %.lr.ph54.split.us.i.i
  %indvars.iv.next60.i.i = add nuw nsw i64 %indvars.iv59.i.i, 1
  %34 = getelementptr inbounds nuw i16, ptr %.04252.us.i.i, i64 %22
  %35 = getelementptr inbounds nuw i16, ptr %.04351.us.i.i, i64 %22
  %36 = getelementptr inbounds nuw float, ptr %.04450.us.i.i, i64 %22
  %exitcond63.not.i.i = icmp eq i64 %indvars.iv.next60.i.i, %wide.trip.count62.i.i
  br i1 %exitcond63.not.i.i, label %_ZN2cv12cpu_baseline13accProd_simd_EPKtS2_PfPKhii.exit, label %.lr.ph54.split.us.i.i, !llvm.loop !60

_ZN2cv12cpu_baseline13accProd_simd_EPKtS2_PfPKhii.exit: ; preds = %..loopexit47_crit_edge.us.i.i, %.lr.ph.i.i, %7, %19, %.lr.ph54.i.i
  ret void
}